; Function Attrs: nounwind uwtable
define i32 @pmix20_bfrop_unpack_timeval(ptr noundef %0, ptr noundef %1, ptr noundef writeonly captures(none) %2, ptr noundef readonly captures(none) %3, i16 noundef zeroext %4) local_unnamed_addr #0 {
  %6 = alloca i32, align 4
  %7 = alloca [2 x i64], align 16
  call void @llvm.lifetime.start.p0(i64 4, ptr nonnull %6) #10
  call void @llvm.lifetime.start.p0(i64 16, ptr nonnull %7) #10
  %8 = load i32, ptr getelementptr inbounds nuw (i8, ptr @pmix_bfrops_base_framework, i64 76), align 4, !tbaa !7
  %or.cond = icmp ult i32 %8, 64
  br i1 %or.cond, label %9, label %16

9:                                                ; preds = %5
  %10 = zext nneg i32 %8 to i64
  %11 = getelementptr inbounds nuw [0 x %struct.pmix_output_desc_t], ptr @pmix_output_info, i64 0, i64 %10, i32 2
  %12 = load i32, ptr %11, align 4, !tbaa !19
  %13 = icmp sgt i32 %12, 19
  br i1 %13, label %14, label %16

14:                                               ; preds = %9
  %15 = load i32, ptr %3, align 4, !tbaa !3
  tail call void (i32, ptr, ...) @pmix_output(i32 noundef %8, ptr noundef nonnull @.str.11, i32 noundef %15) #10
  br label %16

16:                                               ; preds = %14, %9, %5
  %17 = load i32, ptr %3, align 4, !tbaa !3
  %18 = sext i32 %17 to i64
  %19 = shl nsw i64 %18, 4
  %20 = tail call zeroext i1 @pmix_bfrop_too_small(ptr noundef %1, i64 noundef %19) #10
  br i1 %20, label %.thread, label %.preheader

.preheader:                                       ; preds = %16
  %21 = getelementptr inbounds nuw i8, ptr %0, i64 152
  %22 = load i32, ptr %3, align 4, !tbaa !3
  %23 = icmp sgt i32 %22, 0
  br i1 %23, label %.lr.ph, label %.thread

.lr.ph:                                           ; preds = %.preheader
  %24 = getelementptr inbounds nuw i8, ptr %0, i64 128
  %25 = getelementptr inbounds nuw i8, ptr %7, i64 8
  br label %26

26:                                               ; preds = %.lr.ph, %36
  %indvars.iv = phi i64 [ 0, %.lr.ph ], [ %indvars.iv.next, %36 ]
  store i32 2, ptr %6, align 4, !tbaa !3
  %27 = load i32, ptr %24, align 8, !tbaa !26
  %.not.i = icmp sgt i32 %27, 10
  br i1 %.not.i, label %pmix_pointer_array_get_item.exit, label %.thread, !prof !29

pmix_pointer_array_get_item.exit:                 ; preds = %26
  %28 = load ptr, ptr %21, align 8, !tbaa !30
  %29 = getelementptr inbounds nuw i8, ptr %28, i64 80
  %30 = load ptr, ptr %29, align 8, !tbaa !31
  %31 = icmp eq ptr %30, null
  br i1 %31, label %.thread, label %32

32:                                               ; preds = %pmix_pointer_array_get_item.exit
  %33 = getelementptr inbounds nuw i8, ptr %30, i64 144
  %34 = load ptr, ptr %33, align 8, !tbaa !32
  %35 = call i32 %34(ptr noundef nonnull %0, ptr noundef %1, ptr noundef nonnull %7, ptr noundef nonnull %6, i16 noundef zeroext 10) #10
  %.not = icmp eq i32 %35, 0
  br i1 %.not, label %36, label %.thread

36:                                               ; preds = %32
  %37 = load i64, ptr %7, align 16, !tbaa !44
  %38 = load i64, ptr %25, align 8, !tbaa !44
  %39 = getelementptr inbounds nuw %struct.timeval, ptr %2, i64 %indvars.iv
  store i64 %37, ptr %39, align 8
  %.sroa.4.0..sroa_idx = getelementptr inbounds nuw i8, ptr %39, i64 8
  store i64 %38, ptr %.sroa.4.0..sroa_idx, align 8
  %indvars.iv.next = add nuw nsw i64 %indvars.iv, 1
  %40 = load i32, ptr %3, align 4, !tbaa !3
  %41 = sext i32 %40 to i64
  %42 = icmp slt i64 %indvars.iv.next, %41
  br i1 %42, label %26, label %.thread, !llvm.loop !67

.thread:                                          ; preds = %32, %36, %pmix_pointer_array_get_item.exit, %26, %.preheader, %16
  %.0 = phi i32 [ -50, %16 ], [ 0, %.preheader ], [ %35, %32 ], [ 0, %36 ], [ -16, %pmix_pointer_array_get_item.exit ], [ -16, %26 ]
  call void @llvm.lifetime.end.p0(i64 16, ptr nonnull %7) #10
  call void @llvm.lifetime.end.p0(i64 4, ptr nonnull %6) #10
  ret i32 %.0
}